target datalayout = "e-m:e-p270:32:32-p271:32:32-p272:64:64-i64:64-i128:128-f80:128-n8:16:32:64-S128"
target triple = "x86_64-pc-linux-gnu"

%struct.anon = type { i64, i64, i64, i64, i64, double, double, ptr, [2 x double], [2 x double], [2 x double], [20 x [20 x ptr]], [20 x [20 x ptr]], ptr, ptr, ptr }

; Function Attrs: nounwind uwtable
define internal void @SetInitialProfiles(ptr noundef %0, ptr noundef %1, ptr noundef %2, ptr noundef %3) #0 {
  %5 = alloca ptr, align 8
  %6 = alloca ptr, align 8
  %7 = alloca ptr, align 8
  %8 = alloca ptr, align 8
  %9 = alloca i64, align 8
  %10 = alloca i64, align 8
  %11 = alloca i64, align 8
  %12 = alloca i64, align 8
  %13 = alloca i64, align 8
  %14 = alloca i64, align 8
  %15 = alloca double, align 8
  %16 = alloca double, align 8
  %17 = alloca double, align 8
  %18 = alloca ptr, align 8
  %19 = alloca ptr, align 8
  %20 = alloca ptr, align 8
  store ptr %0, ptr %5, align 8, !tbaa !8
  store ptr %1, ptr %6, align 8, !tbaa !8
  store ptr %2, ptr %7, align 8, !tbaa !8
  store ptr %3, ptr %8, align 8, !tbaa !4
  call void @llvm.lifetime.start.p0(i64 8, ptr %9) #6
  call void @llvm.lifetime.start.p0(i64 8, ptr %10) #6
  call void @llvm.lifetime.start.p0(i64 8, ptr %11) #6
  call void @llvm.lifetime.start.p0(i64 8, ptr %12) #6
  call void @llvm.lifetime.start.p0(i64 8, ptr %13) #6
  call void @llvm.lifetime.start.p0(i64 8, ptr %14) #6
  call void @llvm.lifetime.start.p0(i64 8, ptr %15) #6
  call void @llvm.lifetime.start.p0(i64 8, ptr %16) #6
  call void @llvm.lifetime.start.p0(i64 8, ptr %17) #6
  call void @llvm.lifetime.start.p0(i64 8, ptr %18) #6
  call void @llvm.lifetime.start.p0(i64 8, ptr %19) #6
  call void @llvm.lifetime.start.p0(i64 8, ptr %20) #6
  %21 = load ptr, ptr %5, align 8, !tbaa !8
  %22 = call ptr @N_VGetArrayPointer(ptr noundef %21)
  store ptr %22, ptr %18, align 8, !tbaa !42
  %23 = load ptr, ptr %6, align 8, !tbaa !8
  %24 = call ptr @N_VGetArrayPointer(ptr noundef %23)
  store ptr %24, ptr %19, align 8, !tbaa !42
  %25 = load ptr, ptr %7, align 8, !tbaa !8
  %26 = call ptr @N_VGetArrayPointer(ptr noundef %25)
  store ptr %26, ptr %20, align 8, !tbaa !42
  %27 = load ptr, ptr %8, align 8, !tbaa !4
  %28 = getelementptr inbounds nuw %struct.anon, ptr %27, i32 0, i32 2
  %29 = load i64, ptr %28, align 8, !tbaa !37
  store i64 %29, ptr %14, align 8, !tbaa !41
  store i64 0, ptr %13, align 8, !tbaa !41
  br label %30

30:                                               ; preds = %112, %4
  %31 = load i64, ptr %13, align 8, !tbaa !41
  %32 = icmp slt i64 %31, 20
  br i1 %32, label %33, label %115

33:                                               ; preds = %30
  %34 = load i64, ptr %13, align 8, !tbaa !41
  %35 = sitofp i64 %34 to double
  %36 = load ptr, ptr %8, align 8, !tbaa !4
  %37 = getelementptr inbounds nuw %struct.anon, ptr %36, i32 0, i32 6
  %38 = load double, ptr %37, align 8, !tbaa !39
  %39 = fmul double %35, %38
  store double %39, ptr %16, align 8, !tbaa !26
  %40 = load i64, ptr %13, align 8, !tbaa !41
  %41 = mul nsw i64 40, %40
  store i64 %41, ptr %10, align 8, !tbaa !41
  store i64 0, ptr %12, align 8, !tbaa !41
  br label %42

42:                                               ; preds = %108, %33
  %43 = load i64, ptr %12, align 8, !tbaa !41
  %44 = icmp slt i64 %43, 20
  br i1 %44, label %45, label %111

45:                                               ; preds = %42
  %46 = load i64, ptr %12, align 8, !tbaa !41
  %47 = sitofp i64 %46 to double
  %48 = load ptr, ptr %8, align 8, !tbaa !4
  %49 = getelementptr inbounds nuw %struct.anon, ptr %48, i32 0, i32 5
  %50 = load double, ptr %49, align 8, !tbaa !38
  %51 = fmul double %47, %50
  store double %51, ptr %15, align 8, !tbaa !26
  %52 = load double, ptr %15, align 8, !tbaa !26
  %53 = fmul double 1.600000e+01, %52
  %54 = load double, ptr %15, align 8, !tbaa !26
  %55 = fsub double 1.000000e+00, %54
  %56 = fmul double %53, %55
  %57 = load double, ptr %16, align 8, !tbaa !26
  %58 = fmul double %56, %57
  %59 = load double, ptr %16, align 8, !tbaa !26
  %60 = fsub double 1.000000e+00, %59
  %61 = fmul double %58, %60
  store double %61, ptr %17, align 8, !tbaa !26
  %62 = load double, ptr %17, align 8, !tbaa !26
  %63 = load double, ptr %17, align 8, !tbaa !26
  %64 = fmul double %63, %62
  store double %64, ptr %17, align 8, !tbaa !26
  %65 = load i64, ptr %10, align 8, !tbaa !41
  %66 = load i64, ptr %12, align 8, !tbaa !41
  %67 = mul nsw i64 2, %66
  %68 = add nsw i64 %65, %67
  store i64 %68, ptr %9, align 8, !tbaa !41
  store i64 0, ptr %11, align 8, !tbaa !41
  br label %69

69:                                               ; preds = %104, %45
  %70 = load i64, ptr %11, align 8, !tbaa !41
  %71 = icmp slt i64 %70, 2
  br i1 %71, label %72, label %107

72:                                               ; preds = %69
  %73 = load i64, ptr %11, align 8, !tbaa !41
  %74 = load i64, ptr %14, align 8, !tbaa !41
  %75 = icmp slt i64 %73, %74
  br i1 %75, label %76, label %92

76:                                               ; preds = %72
  %77 = load i64, ptr %11, align 8, !tbaa !41
  %78 = add nsw i64 %77, 1
  %79 = sitofp i64 %78 to double
  %80 = load double, ptr %17, align 8, !tbaa !26
  %81 = call double @llvm.fmuladd.f64(double %79, double %80, double 1.000000e+01)
  %82 = load ptr, ptr %18, align 8, !tbaa !42
  %83 = load i64, ptr %9, align 8, !tbaa !41
  %84 = load i64, ptr %11, align 8, !tbaa !41
  %85 = add nsw i64 %83, %84
  %86 = getelementptr inbounds double, ptr %82, i64 %85
  store double %81, ptr %86, align 8, !tbaa !26
  %87 = load ptr, ptr %20, align 8, !tbaa !42
  %88 = load i64, ptr %9, align 8, !tbaa !41
  %89 = load i64, ptr %11, align 8, !tbaa !41
  %90 = add nsw i64 %88, %89
  %91 = getelementptr inbounds double, ptr %87, i64 %90
  store double 1.000000e+00, ptr %91, align 8, !tbaa !26
  br label %103

92:                                               ; preds = %72
  %93 = load ptr, ptr %18, align 8, !tbaa !42
  %94 = load i64, ptr %9, align 8, !tbaa !41
  %95 = load i64, ptr %11, align 8, !tbaa !41
  %96 = add nsw i64 %94, %95
  %97 = getelementptr inbounds double, ptr %93, i64 %96
  store double 1.000000e+05, ptr %97, align 8, !tbaa !26
  %98 = load ptr, ptr %20, align 8, !tbaa !42
  %99 = load i64, ptr %9, align 8, !tbaa !41
  %100 = load i64, ptr %11, align 8, !tbaa !41
  %101 = add nsw i64 %99, %100
  %102 = getelementptr inbounds double, ptr %98, i64 %101
  store double 0.000000e+00, ptr %102, align 8, !tbaa !26
  br label %103

103:                                              ; preds = %92, %76
  br label %104

104:                                              ; preds = %103
  %105 = load i64, ptr %11, align 8, !tbaa !41
  %106 = add nsw i64 %105, 1
  store i64 %106, ptr %11, align 8, !tbaa !41
  br label %69

107:                                              ; preds = %69
  br label %108

108:                                              ; preds = %107
  %109 = load i64, ptr %12, align 8, !tbaa !41
  %110 = add nsw i64 %109, 1
  store i64 %110, ptr %12, align 8, !tbaa !41
  br label %42

111:                                              ; preds = %42
  br label %112

112:                                              ; preds = %111
  %113 = load i64, ptr %13, align 8, !tbaa !41
  %114 = add nsw i64 %113, 1
  store i64 %114, ptr %13, align 8, !tbaa !41
  br label %30

115:                                              ; preds = %30
  %116 = load ptr, ptr %5, align 8, !tbaa !8
  %117 = load ptr, ptr %6, align 8, !tbaa !8
  %118 = load ptr, ptr %8, align 8, !tbaa !4
  call void @Fweb(double noundef 0.000000e+00, ptr noundef %116, ptr noundef %117, ptr noundef %118)
  store i64 0, ptr %13, align 8, !tbaa !41
  br label %119

119:                                              ; preds = %151, %115
  %120 = load i64, ptr %13, align 8, !tbaa !41
  %121 = icmp slt i64 %120, 20
  br i1 %121, label %122, label %154

122:                                              ; preds = %119
  %123 = load i64, ptr %13, align 8, !tbaa !41
  %124 = mul nsw i64 40, %123
  store i64 %124, ptr %10, align 8, !tbaa !41
  store i64 0, ptr %12, align 8, !tbaa !41
  br label %125

125:                                              ; preds = %147, %122
  %126 = load i64, ptr %12, align 8, !tbaa !41
  %127 = icmp slt i64 %126, 20
  br i1 %127, label %128, label %150

128:                                              ; preds = %125
  %129 = load i64, ptr %10, align 8, !tbaa !41
  %130 = load i64, ptr %12, align 8, !tbaa !41
  %131 = mul nsw i64 2, %130
  %132 = add nsw i64 %129, %131
  store i64 %132, ptr %9, align 8, !tbaa !41
  %133 = load i64, ptr %14, align 8, !tbaa !41
  store i64 %133, ptr %11, align 8, !tbaa !41
  br label %134

134:                                              ; preds = %143, %128
  %135 = load i64, ptr %11, align 8, !tbaa !41
  %136 = icmp slt i64 %135, 2
  br i1 %136, label %137, label %146

137:                                              ; preds = %134
  %138 = load ptr, ptr %19, align 8, !tbaa !42
  %139 = load i64, ptr %9, align 8, !tbaa !41
  %140 = load i64, ptr %11, align 8, !tbaa !41
  %141 = add nsw i64 %139, %140
  %142 = getelementptr inbounds double, ptr %138, i64 %141
  store double 0.000000e+00, ptr %142, align 8, !tbaa !26
  br label %143

143:                                              ; preds = %137
  %144 = load i64, ptr %11, align 8, !tbaa !41
  %145 = add nsw i64 %144, 1
  store i64 %145, ptr %11, align 8, !tbaa !41
  br label %134

146:                                              ; preds = %134
  br label %147

147:                                              ; preds = %146
  %148 = load i64, ptr %12, align 8, !tbaa !41
  %149 = add nsw i64 %148, 1
  store i64 %149, ptr %12, align 8, !tbaa !41
  br label %125

150:                                              ; preds = %125
  br label %151

151:                                              ; preds = %150
  %152 = load i64, ptr %13, align 8, !tbaa !41
  %153 = add nsw i64 %152, 1
  store i64 %153, ptr %13, align 8, !tbaa !41
  br label %119

154:                                              ; preds = %119
  call void @llvm.lifetime.end.p0(i64 8, ptr %20) #6
  call void @llvm.lifetime.end.p0(i64 8, ptr %19) #6
  call void @llvm.lifetime.end.p0(i64 8, ptr %18) #6
  call void @llvm.lifetime.end.p0(i64 8, ptr %17) #6
  call void @llvm.lifetime.end.p0(i64 8, ptr %16) #6
  call void @llvm.lifetime.end.p0(i64 8, ptr %15) #6
  call void @llvm.lifetime.end.p0(i64 8, ptr %14) #6
  call void @llvm.lifetime.end.p0(i64 8, ptr %13) #6
  call void @llvm.lifetime.end.p0(i64 8, ptr %12) #6
  call void @llvm.lifetime.end.p0(i64 8, ptr %11) #6
  call void @llvm.lifetime.end.p0(i64 8, ptr %10) #6
  call void @llvm.lifetime.end.p0(i64 8, ptr %9) #6
  ret void
}