; Function Attrs: nounwind uwtable
define internal fastcc void @SetInitialProfiles(ptr noundef %0, ptr noundef %1, ptr noundef %2, ptr noundef readonly captures(none) %3) unnamed_addr #0 {
  %5 = tail call ptr @N_VGetArrayPointer(ptr noundef %0) #12
  %6 = tail call ptr @N_VGetArrayPointer(ptr noundef %1) #12
  %7 = tail call ptr @N_VGetArrayPointer(ptr noundef %2) #12
  %8 = getelementptr inbounds nuw i8, ptr %3, i64 16
  %9 = load i64, ptr %8, align 8, !tbaa !25
  %10 = getelementptr inbounds nuw i8, ptr %3, i64 48
  %11 = getelementptr inbounds nuw i8, ptr %3, i64 40
  br label %12

12:                                               ; preds = %4, %47
  %.05662 = phi i64 [ 0, %4 ], [ %48, %47 ]
  %13 = uitofp nneg i64 %.05662 to double
  %14 = load double, ptr %10, align 8, !tbaa !27
  %15 = fmul double %14, %13
  %16 = mul nuw nsw i64 %.05662, 40
  %17 = fsub double 1.000000e+00, %15
  br label %18

18:                                               ; preds = %12, %45
  %.05461 = phi i64 [ 0, %12 ], [ %46, %45 ]
  %19 = uitofp nneg i64 %.05461 to double
  %20 = load double, ptr %11, align 8, !tbaa !26
  %21 = fmul double %20, %19
  %22 = fmul double %21, 1.600000e+01
  %23 = fsub double 1.000000e+00, %21
  %24 = fmul double %22, %23
  %25 = fmul double %15, %24
  %26 = fmul double %17, %25
  %27 = fmul double %26, %26
  %28 = shl nuw nsw i64 %.05461, 1
  %29 = add nuw nsw i64 %28, %16
  br label %30

30:                                               ; preds = %18, %43
  %.060 = phi i64 [ 0, %18 ], [ %.pre-phi, %43 ]
  %31 = icmp slt i64 %.060, %9
  br i1 %31, label %32, label %39

32:                                               ; preds = %30
  %33 = add nuw nsw i64 %.060, 1
  %34 = uitofp nneg i64 %33 to double
  %35 = tail call double @llvm.fmuladd.f64(double %34, double %27, double 1.000000e+01)
  %36 = or disjoint i64 %.060, %29
  %37 = getelementptr inbounds nuw double, ptr %5, i64 %36
  store double %35, ptr %37, align 8, !tbaa !31
  %38 = getelementptr inbounds nuw double, ptr %7, i64 %36
  store double 1.000000e+00, ptr %38, align 8, !tbaa !31
  br label %43

39:                                               ; preds = %30
  %40 = or disjoint i64 %.060, %29
  %41 = getelementptr inbounds nuw double, ptr %5, i64 %40
  store double 1.000000e+05, ptr %41, align 8, !tbaa !31
  %42 = getelementptr inbounds nuw double, ptr %7, i64 %40
  store double 0.000000e+00, ptr %42, align 8, !tbaa !31
  %.pre = add nuw nsw i64 %.060, 1
  br label %43

43:                                               ; preds = %32, %39
  %.pre-phi = phi i64 [ %33, %32 ], [ %.pre, %39 ]
  %44 = icmp eq i64 %.060, 0
  br i1 %44, label %30, label %45

45:                                               ; preds = %43
  %46 = add nuw nsw i64 %.05461, 1
  %exitcond.not = icmp eq i64 %46, 20
  br i1 %exitcond.not, label %47, label %18

47:                                               ; preds = %45
  %48 = add nuw nsw i64 %.05662, 1
  %exitcond70.not = icmp eq i64 %48, 20
  br i1 %exitcond70.not, label %49, label %12

49:                                               ; preds = %47
  tail call fastcc void @Fweb(ptr noundef %0, ptr noundef %1, ptr noundef %3)
  %50 = icmp slt i64 %9, 2
  br i1 %50, label %.preheader59.us.preheader, label %.split68.us

.preheader59.us.preheader:                        ; preds = %49
  %51 = shl i64 %9, 3
  %52 = sub i64 16, %51
  %53 = getelementptr i8, ptr %6, i64 %51
  br label %.preheader59.us

.preheader59.us:                                  ; preds = %.preheader59.us.preheader, %.split.us.us
  %.15765.us = phi i64 [ %58, %.split.us.us ], [ 0, %.preheader59.us.preheader ]
  %54 = mul nuw nsw i64 %.15765.us, 320
  %55 = getelementptr i8, ptr %53, i64 %54
  br label %.preheader.us.us

.preheader.us.us:                                 ; preds = %.preheader.us.us, %.preheader59.us
  %.15564.us.us = phi i64 [ 0, %.preheader59.us ], [ %57, %.preheader.us.us ]
  %56 = shl nuw nsw i64 %.15564.us.us, 4
  %scevgep = getelementptr i8, ptr %55, i64 %56
  tail call void @llvm.memset.p0.i64(ptr align 8 %scevgep, i8 0, i64 %52, i1 false), !tbaa !31
  %57 = add nuw nsw i64 %.15564.us.us, 1
  %exitcond71.not = icmp eq i64 %57, 20
  br i1 %exitcond71.not, label %.split.us.us, label %.preheader.us.us

.split.us.us:                                     ; preds = %.preheader.us.us
  %58 = add nuw nsw i64 %.15765.us, 1
  %exitcond72.not = icmp eq i64 %58, 20
  br i1 %exitcond72.not, label %.split68.us, label %.preheader59.us

.split68.us:                                      ; preds = %.split.us.us, %49
  ret void
}